; Function Attrs: nounwind uwtable
define range(i32 0, 2) i32 @X509V3_add_value(ptr noundef %0, ptr noundef %1, ptr noundef captures(none) %2) local_unnamed_addr #0 {
  %.not = icmp eq ptr %1, null
  br i1 %.not, label %.split5, label %.split

.split5:                                          ; preds = %3
  %4 = tail call fastcc i32 @x509v3_add_len_value(ptr noundef %0, ptr noundef null, i64 noundef 0, ptr noundef %2)
  br label %7

.split:                                           ; preds = %3
  %5 = tail call i64 @strlen(ptr noundef nonnull dereferenceable(1) %1) #11
  %6 = tail call fastcc i32 @x509v3_add_len_value(ptr noundef %0, ptr noundef nonnull %1, i64 noundef %5, ptr noundef %2)
  br label %7

7:                                                ; preds = %.split5, %.split
  %phi.call = phi i32 [ %6, %.split ], [ %4, %.split5 ]
  ret i32 %phi.call
}